; ModuleID = '16/284.c'
source_filename = "16/284.c"
target datalayout = "e-m:e-p270:32:32-p271:32:32-p272:64:64-i64:64-f80:128-n8:16:32:64-S128"
target triple = "x86_64-pc-linux-gnu"

@.str = private unnamed_addr constant [3 x i8] c"%d\00", align 1
@.str.1 = private unnamed_addr constant [5 x i8] c"%d%d\00", align 1
@.str.2 = private unnamed_addr constant [7 x i8] c"%d%d%d\00", align 1
@.str.3 = private unnamed_addr constant [9 x i8] c"%d%d%d%d\00", align 1
@.str.4 = private unnamed_addr constant [6 x i8] c"00001\00", align 1

; Function Attrs: noinline nounwind uwtable
define dso_local i32 @main() #0 {
  %1 = alloca i32, align 4
  %2 = alloca i32, align 4
  %3 = alloca i32, align 4
  %4 = alloca i32, align 4
  %5 = alloca i32, align 4
  %6 = alloca i32, align 4
  %7 = alloca i32, align 4
  %8 = alloca i32, align 4
  store i32 0, i32* %1, align 4
  %9 = call i32 (i8*, ...) @__isoc99_scanf(i8* getelementptr inbounds ([3 x i8], [3 x i8]* @.str, i64 0, i64 0), i32* %2)
  %10 = load i32, i32* %2, align 4
  %11 = icmp slt i32 %10, 10
  br i1 %11, label %12, label %15

12:                                               ; preds = %0
  %13 = load i32, i32* %2, align 4
  %14 = call i32 (i8*, ...) @printf(i8* getelementptr inbounds ([3 x i8], [3 x i8]* @.str, i64 0, i64 0), i32 %13)
  br label %68

15:                                               ; preds = %0
  %16 = load i32, i32* %2, align 4
  %17 = icmp slt i32 %16, 100
  br i1 %17, label %18, label %26

18:                                               ; preds = %15
  %19 = load i32, i32* %2, align 4
  %20 = sdiv i32 %19, 10
  store i32 %20, i32* %3, align 4
  %21 = load i32, i32* %2, align 4
  %22 = srem i32 %21, 10
  store i32 %22, i32* %4, align 4
  %23 = load i32, i32* %4, align 4
  %24 = load i32, i32* %3, align 4
  %25 = call i32 (i8*, ...) @printf(i8* getelementptr inbounds ([5 x i8], [5 x i8]* @.str.1, i64 0, i64 0), i32 %23, i32 %24)
  br label %67

26:                                               ; preds = %15
  %27 = load i32, i32* %2, align 4
  %28 = icmp slt i32 %27, 1000
  br i1 %28, label %29, label %42

29:                                               ; preds = %26
  %30 = load i32, i32* %2, align 4
  %31 = sdiv i32 %30, 100
  store i32 %31, i32* %3, align 4
  %32 = load i32, i32* %2, align 4
  %33 = srem i32 %32, 100
  store i32 %33, i32* %7, align 4
  %34 = load i32, i32* %7, align 4
  %35 = sdiv i32 %34, 10
  store i32 %35, i32* %4, align 4
  %36 = load i32, i32* %7, align 4
  %37 = srem i32 %36, 10
  store i32 %37, i32* %5, align 4
  %38 = load i32, i32* %5, align 4
  %39 = load i32, i32* %4, align 4
  %40 = load i32, i32* %3, align 4
  %41 = call i32 (i8*, ...) @printf(i8* getelementptr inbounds ([7 x i8], [7 x i8]* @.str.2, i64 0, i64 0), i32 %38, i32 %39, i32 %40)
  br label %66

42:                                               ; preds = %26
  %43 = load i32, i32* %2, align 4
  %44 = icmp slt i32 %43, 10000
  br i1 %44, label %45, label %63

45:                                               ; preds = %42
  %46 = load i32, i32* %2, align 4
  %47 = sdiv i32 %46, 1000
  store i32 %47, i32* %3, align 4
  %48 = load i32, i32* %2, align 4
  %49 = srem i32 %48, 1000
  store i32 %49, i32* %7, align 4
  %50 = load i32, i32* %7, align 4
  %51 = sdiv i32 %50, 100
  store i32 %51, i32* %4, align 4
  %52 = load i32, i32* %7, align 4
  %53 = srem i32 %52, 100
  store i32 %53, i32* %8, align 4
  %54 = load i32, i32* %8, align 4
  %55 = sdiv i32 %54, 10
  store i32 %55, i32* %5, align 4
  %56 = load i32, i32* %8, align 4
  %57 = srem i32 %56, 10
  store i32 %57, i32* %6, align 4
  %58 = load i32, i32* %6, align 4
  %59 = load i32, i32* %5, align 4
  %60 = load i32, i32* %4, align 4
  %61 = load i32, i32* %3, align 4
  %62 = call i32 (i8*, ...) @printf(i8* getelementptr inbounds ([9 x i8], [9 x i8]* @.str.3, i64 0, i64 0), i32 %58, i32 %59, i32 %60, i32 %61)
  br label %65

63:                                               ; preds = %42
  %64 = call i32 (i8*, ...) @printf(i8* getelementptr inbounds ([6 x i8], [6 x i8]* @.str.4, i64 0, i64 0))
  br label %65

65:                                               ; preds = %63, %45
  br label %66

66:                                               ; preds = %65, %29
  br label %67

67:                                               ; preds = %66, %18
  br label %68

68:                                               ; preds = %67, %12
  ret i32 0
}

declare dso_local i32 @__isoc99_scanf(i8*, ...) #1

declare dso_local i32 @printf(i8*, ...) #1


!llvm.module.flags = !{!0}
!llvm.ident = !{!1}

!0 = !{i32 1, !"wchar_size", i32 4}
!1 = !{!"clang version 10.0.0-4ubuntu1 "}
